target datalayout = "e-m:e-p270:32:32-p271:32:32-p272:64:64-i64:64-i128:128-f80:128-n8:16:32:64-S128"
target triple = "x86_64-pc-linux-gnu"

%struct.Qureg = type { i32, i32, i32, i64, i64, i32, i32, %struct.ComplexArray, %struct.ComplexArray, %struct.ComplexArray, ptr, ptr, ptr, ptr, ptr, ptr }
%struct.ComplexArray = type { ptr, ptr }

@__func__.measureWithStats = private unnamed_addr constant [17 x i8] c"measureWithStats\00", align 1

; Function Attrs: nounwind uwtable
define i32 @measureWithStats(ptr noundef byval(%struct.Qureg) align 8 %0, i32 noundef %1, ptr noundef %2) #0 {
  %4 = alloca i32, align 4
  %5 = alloca ptr, align 8
  %6 = alloca i32, align 4
  store i32 %1, ptr %4, align 4, !tbaa !4
  store ptr %2, ptr %5, align 8, !tbaa !23
  %7 = load i32, ptr %4, align 4, !tbaa !4
  call void @validateTarget(ptr noundef byval(%struct.Qureg) align 8 %0, i32 noundef %7, ptr noundef @__func__.measureWithStats)
  call void @llvm.lifetime.start.p0(i64 4, ptr %6) #7
  %8 = getelementptr inbounds nuw %struct.Qureg, ptr %0, i32 0, i32 0
  %9 = load i32, ptr %8, align 8, !tbaa !13
  %10 = icmp ne i32 %9, 0
  br i1 %10, label %11, label %15

11:                                               ; preds = %3
  %12 = load i32, ptr %4, align 4, !tbaa !4
  %13 = load ptr, ptr %5, align 8, !tbaa !23
  %14 = call i32 @densmatr_measureWithStats(ptr noundef byval(%struct.Qureg) align 8 %0, i32 noundef %12, ptr noundef %13)
  store i32 %14, ptr %6, align 4, !tbaa !4
  br label %19

15:                                               ; preds = %3
  %16 = load i32, ptr %4, align 4, !tbaa !4
  %17 = load ptr, ptr %5, align 8, !tbaa !23
  %18 = call i32 @statevec_measureWithStats(ptr noundef byval(%struct.Qureg) align 8 %0, i32 noundef %16, ptr noundef %17)
  store i32 %18, ptr %6, align 4, !tbaa !4
  br label %19

19:                                               ; preds = %15, %11
  %20 = load i32, ptr %4, align 4, !tbaa !4
  call void @qasm_recordMeasurement(ptr noundef byval(%struct.Qureg) align 8 %0, i32 noundef %20)
  %21 = load i32, ptr %6, align 4, !tbaa !4
  call void @llvm.lifetime.end.p0(i64 4, ptr %6) #7
  ret i32 %21
}