; Function Attrs: nounwind uwtable
define i32 @measureWithStats(ptr noundef readonly byval(%struct.Qureg) align 8 captures(none) %0, i32 noundef %1, ptr noundef %2) local_unnamed_addr #0 {
  tail call void @validateTarget(ptr noundef nonnull byval(%struct.Qureg) align 8 %0, i32 noundef %1, ptr noundef nonnull @__func__.measureWithStats) #17
  %4 = load i32, ptr %0, align 8, !tbaa !12
  %.not = icmp eq i32 %4, 0
  br i1 %.not, label %7, label %5

5:                                                ; preds = %3
  %6 = tail call i32 @densmatr_measureWithStats(ptr noundef nonnull byval(%struct.Qureg) align 8 %0, i32 noundef %1, ptr noundef %2) #17
  br label %9

7:                                                ; preds = %3
  %8 = tail call i32 @statevec_measureWithStats(ptr noundef nonnull byval(%struct.Qureg) align 8 %0, i32 noundef %1, ptr noundef %2) #17
  br label %9

9:                                                ; preds = %7, %5
  %.0 = phi i32 [ %6, %5 ], [ %8, %7 ]
  tail call void @qasm_recordMeasurement(ptr noundef nonnull byval(%struct.Qureg) align 8 %0, i32 noundef %1) #17
  ret i32 %.0
}